
========================================================================

** ELF Header Information

    File Name: test.axf

    Machine class: ELFCLASS32 (32-bit)
    Data encoding: ELFDATA2LSB (Little endian)
    Header version: EV_CURRENT (Current version)
    Operating System ABI: ARM BPABI with Symbol Versioning
    ABI Version: 0
    File Type: ET_EXEC (Executable) (2)
    Machine: EM_ARM (ARM)

    Image Entry point: 0x00008081
    Flags: EF_ARM_HASENTRY (0x05000002)

    ARM ELF revision: 5 (ABI version 2)

    Built with
    Component: ARM Compiler 5.05 (build 41) Tool: armcc [4d0eb9]
    Component: ARM Compiler 5.05 (build 41) Tool: armlink [4d0eb9]

    Header size: 52 bytes (0x34)
    Program header entry size: 32 bytes (0x20)
    Section header entry size: 40 bytes (0x28)

    Program header entries: 2
    Section header entries: 22

    Program header offset: 52 (0x00000034)
    Section header offset: 5956 (0x00001744)

    Section header string table index: 21

========================================================================

** Program header #0 (PT_LOAD) [PF_X + PF_W + PF_R + PF_ARM_SB + PF_ARM_ENTRY]
    Size : 356 bytes (228 bytes in file)
    Virtual address: 0x00008000 (Alignment 4)


====================================

** Program header #1 (PT_DYNAMIC) [PF_R]
    Size : 120 bytes
    Virtual address: 0x00000000 (Alignment 4)


========================================================================

** Section #1 'ER_RO' (SHT_PROGBITS) [SHF_ALLOC + SHF_EXECINSTR]
    Size   : 212 bytes (alignment 4)
    Address: 0x00008000

    $t
    .text
    ml_func
        0x00008000:    4a1a        .J      LDR      r2,[pc,#104] ; [0x806c] = 0x10
        0x00008002:    4b1b        .K      LDR      r3,[pc,#108] ; [0x8070] = 0x4
        0x00008004:    444a        JD      ADD      r2,r2,r9
        0x00008006:    444b        KD      ADD      r3,r3,r9
        0x00008008:    6812        .h      LDR      r2,[r2,#0]
        0x0000800a:    681b        .h      LDR      r3,[r3,#0]
        0x0000800c:    4408        .D      ADD      r0,r0,r1
        0x0000800e:    441a        .D      ADD      r2,r2,r3
        0x00008010:    4410        .D      ADD      r0,r0,r2
        0x00008012:    4770        pG      BX       lr
    ml_func2
        0x00008014:    4916        .I      LDR      r1,[pc,#88] ; [0x8070] = 0x4
        0x00008016:    4815        .H      LDR      r0,[pc,#84] ; [0x806c] = 0x10
        0x00008018:    4449        ID      ADD      r1,r1,r9
        0x0000801a:    4448        HD      ADD      r0,r0,r9
        0x0000801c:    6809        .h      LDR      r1,[r1,#0]
        0x0000801e:    4a15        .J      LDR      r2,[pc,#84] ; [0x8074] = 0xdeadbeaf
        0x00008020:    6800        .h      LDR      r0,[r0,#0]
        0x00008022:    4411        .D      ADD      r1,r1,r2
        0x00008024:    4408        .D      ADD      r0,r0,r1
        0x00008026:    4770        pG      BX       lr
    ml_funcg
        0x00008028:    4813        .H      LDR      r0,[pc,#76] ; [0x8078] = 0xc004
        0x0000802a:    b510        ..      PUSH     {r4,lr}
        0x0000802c:    4448        HD      ADD      r0,r0,r9
        0x0000802e:    6800        .h      LDR      r0,[r0,#0]
        0x00008030:    f000f844    ..D.    BL       $Ven$TT$L$$lib_func1 ; 0x80bc
        0x00008034:    4811        .H      LDR      r0,[pc,#68] ; [0x807c] = 0x10000008
        0x00008036:    4448        HD      ADD      r0,r0,r9
        0x00008038:    6800        .h      LDR      r0,[r0,#0]
        0x0000803a:    f000f844    ..D.    BL       $Ven$TT$L$$lib_func2 ; 0x80c6
        0x0000803e:    f000f829    ..).    BL       ml_func5 ; 0x8094
        0x00008042:    bd10        ..      POP      {r4,pc}
    ml_func3
        0x00008044:    4a09        .J      LDR      r2,[pc,#36] ; [0x806c] = 0x10
        0x00008046:    b510        ..      PUSH     {r4,lr}
        0x00008048:    444a        JD      ADD      r2,r2,r9
        0x0000804a:    f8421020    B. .    STR      r1,[r2,r0,LSL #2]
        0x0000804e:    480a        .H      LDR      r0,[pc,#40] ; [0x8078] = 0xc004
        0x00008050:    4448        HD      ADD      r0,r0,r9
        0x00008052:    6800        .h      LDR      r0,[r0,#0]
        0x00008054:    f000f832    ..2.    BL       $Ven$TT$L$$lib_func1 ; 0x80bc
        0x00008058:    4808        .H      LDR      r0,[pc,#32] ; [0x807c] = 0x10000008
        0x0000805a:    4448        HD      ADD      r0,r0,r9
        0x0000805c:    6800        .h      LDR      r0,[r0,#0]
        0x0000805e:    f000f832    ..2.    BL       $Ven$TT$L$$lib_func2 ; 0x80c6
        0x00008062:    e8bd4010    ...@    POP      {r4,lr}
        0x00008066:    f000b815    ....    B.W      ml_func5 ; 0x8094
    $d
        0x0000806a:    0000        ..      DCW    0
        0x0000806c:    00000010    ....    DCD    16
        0x00008070:    00000004    ....    DCD    4
        0x00008074:    deadbeaf    ....    DCD    3735928495
        0x00008078:    0000c004    ....    DCD    49156
        0x0000807c:    10000008    ....    DCD    268435464
    $t
    .text
    ml_func4
        0x00008080:    480b        .H      LDR      r0,[pc,#44] ; [0x80b0] = 0x4
        0x00008082:    4448        HD      ADD      r0,r0,r9
        0x00008084:    6801        .h      LDR      r1,[r0,#0]
        0x00008086:    480b        .H      LDR      r0,[pc,#44] ; [0x80b4] = 0x44
        0x00008088:    4478        xD      ADD      r0,r0,pc
        0x0000808a:    4a0b        .J      LDR      r2,[pc,#44] ; [0x80b8] = 0x8
        0x0000808c:    6800        .h      LDR      r0,[r0,#0]
        0x0000808e:    444a        JD      ADD      r2,r2,r9
        0x00008090:    6812        .h      LDR      r2,[r2,#0]
        0x00008092:    4710        .G      BX       r2
    ml_func5
        0x00008094:    4a08        .J      LDR      r2,[pc,#32] ; [0x80b8] = 0x8
        0x00008096:    b510        ..      PUSH     {r4,lr}
        0x00008098:    444a        JD      ADD      r2,r2,r9
        0x0000809a:    21de        .!      MOVS     r1,#0xde
        0x0000809c:    6852        Rh      LDR      r2,[r2,#4]
        0x0000809e:    20a5        .       MOVS     r0,#0xa5
        0x000080a0:    4790        .G      BLX      r2
        0x000080a2:    2155        U!      MOVS     r1,#0x55
        0x000080a4:    e8bd4010    ...@    POP      {r4,lr}
        0x000080a8:    20de        .       MOVS     r0,#0xde
        0x000080aa:    f7ffbfcb    ....    B.W      ml_func3 ; 0x8044
    $d
        0x000080ae:    0000        ..      DCW    0
        0x000080b0:    00000004    ....    DCD    4
        0x000080b4:    00000044    D...    DCD    68
        0x000080b8:    00000008    ....    DCD    8
    $t
    $Ven$TT$L$$lib_func1
        0x000080bc:    f24c0c01    L...    MOV      r12,#0xc001
        0x000080c0:    f2c00c00    ....    MOVT     r12,#0
        0x000080c4:    4760        `G      BX       r12
    $Ven$TT$L$$lib_func2
        0x000080c6:    f2480c15    H...    MOV      r12,#0x8015
        0x000080ca:    f2c10c00    ....    MOVT     r12,#0x1000
        0x000080ce:    4760        `G      BX       r12
    $d.realdata
    .constdata
    myconst
        0x000080d0:    deadbeaf    ....    DCD    3735928495

** Section #2 'ER_RW' (SHT_PROGBITS) [SHF_ALLOC + SHF_WRITE]
    Size   : 16 bytes (alignment 4)
    Address: 0x00000000

    0x000000:   00 00 00 00 2a 00 00 00 00 00 00 00 00 00 00 00    ....*...........


** Section #3 'ER_ZI' (SHT_NOBITS) [SHF_ALLOC + SHF_WRITE]
    Size   : 128 bytes (alignment 4)
    Address: 0x00000010


** Section #4 '.dynstr' (SHT_STRTAB)
    Size   : 20 bytes


** Section #5 '.dynsym' (SHT_DYNSYM)
    Size   : 48 bytes (alignment 4)
    String table #4 '.dynstr'
    Last local symbol no. 1


** Section #6 '.hash' (SHT_HASH)
    Size   : 28 bytes (alignment 4)
    Symbol table #5 '.dynsym'


** Section #8 '.version' (SHT_GNU_versym)
    Size   : 6 bytes (alignment 4)
    Symbol table #5 '.dynsym'


** Section #9 '.version_d' (SHT_GNU_verdef)
    Size   : 56 bytes (alignment 4)
    String table #4 '.dynstr'


** Section #10 '.dynamic' (SHT_DYNAMIC)
    Size   : 120 bytes (alignment 4)
    String table #4 '.dynstr'


** Section #11 '.debug_abbrev' (SHT_PROGBITS)
    Size   : 1444 bytes


** Section #12 '.debug_frame' (SHT_PROGBITS)
    Size   : 428 bytes


** Section #13 '.debug_info' (SHT_PROGBITS)
    Size   : 1144 bytes


** Section #14 '.debug_line' (SHT_PROGBITS)
    Size   : 256 bytes


** Section #15 '.debug_loc' (SHT_PROGBITS)
    Size   : 180 bytes


** Section #16 '.debug_pubnames' (SHT_PROGBITS)
    Size   : 265 bytes


** Section #17 '.symtab' (SHT_SYMTAB)
    Size   : 576 bytes (alignment 4)
    String table #18 '.strtab'
    Last local symbol no. 17


** Section #18 '.strtab' (SHT_STRTAB)
    Size   : 404 bytes


** Section #19 '.note' (SHT_NOTE)
    Size   : 28 bytes (alignment 4)


** Section #20 '.comment' (SHT_PROGBITS)
    Size   : 392 bytes


** Section #21 '.shstrtab' (SHT_STRTAB)
    Size   : 196 bytes


** Section #7 '.dyn' (SHT_REL)
    Size   : 16 bytes (alignment 4)
    Symbol table #5 '.dynsym'
    2 relocations applied to section #0 '[Anonymous Section]'

    #      Offset    Relocation Type               Wrt Symbol                   Defined in
    ========================================================================

      0  0x00000008    2 R_ARM_ABS32               1 ml_func                  #1 'ER_RO'
      1  0x0000000c    2 R_ARM_ABS32               1 ml_func                  #1 'ER_RO'


